target datalayout = "e-m:e-p270:32:32-p271:32:32-p272:64:64-i64:64-i128:128-f80:128-n8:16:32:64-S128"
target triple = "x86_64-pc-linux-gnu"

@.str.14 = private unnamed_addr constant [27 x i8] c"../openssl/test/dtlstest.c\00", align 1
@cert = internal global ptr null, align 8
@privkey = internal global ptr null, align 8
@.str.25 = private unnamed_addr constant [117 x i8] c"create_ssl_ctx_pair(NULL, DTLS_server_method(), DTLS_client_method(), DTLS1_VERSION, 0, &sctx, &cctx, cert, privkey)\00", align 1
@.str.33 = private unnamed_addr constant [67 x i8] c"create_ssl_objects(sctx, cctx, &serverssl, &clientssl, NULL, NULL)\00", align 1
@.str.34 = private unnamed_addr constant [60 x i8] c"create_ssl_connection(serverssl, clientssl, SSL_ERROR_NONE)\00", align 1

; Function Attrs: nounwind uwtable
define internal i32 @test_dtls_duplicate_records() #0 {
  %1 = alloca i32, align 4
  %2 = alloca ptr, align 8
  %3 = alloca ptr, align 8
  %4 = alloca ptr, align 8
  %5 = alloca ptr, align 8
  %6 = alloca i32, align 4
  %7 = alloca i32, align 4
  call void @llvm.lifetime.start.p0(i64 8, ptr %2) #5
  store ptr null, ptr %2, align 8, !tbaa !11
  call void @llvm.lifetime.start.p0(i64 8, ptr %3) #5
  store ptr null, ptr %3, align 8, !tbaa !11
  call void @llvm.lifetime.start.p0(i64 8, ptr %4) #5
  store ptr null, ptr %4, align 8, !tbaa !13
  call void @llvm.lifetime.start.p0(i64 8, ptr %5) #5
  store ptr null, ptr %5, align 8, !tbaa !13
  call void @llvm.lifetime.start.p0(i64 4, ptr %6) #5
  store i32 0, ptr %6, align 4, !tbaa !9
  %8 = call ptr @DTLS_server_method()
  %9 = call ptr @DTLS_client_method()
  %10 = load ptr, ptr @cert, align 8, !tbaa !4
  %11 = load ptr, ptr @privkey, align 8, !tbaa !4
  %12 = call i32 @create_ssl_ctx_pair(ptr noundef null, ptr noundef %8, ptr noundef %9, i32 noundef 65279, i32 noundef 0, ptr noundef %2, ptr noundef %3, ptr noundef %10, ptr noundef %11)
  %13 = icmp ne i32 %12, 0
  %14 = zext i1 %13 to i32
  %15 = call i32 @test_true(ptr noundef @.str.14, i32 noundef 358, ptr noundef @.str.25, i32 noundef %14)
  %16 = icmp ne i32 %15, 0
  br i1 %16, label %18, label %17

17:                                               ; preds = %0
  store i32 0, ptr %1, align 4
  store i32 1, ptr %7, align 4
  br label %51

18:                                               ; preds = %0
  %19 = load ptr, ptr %2, align 8, !tbaa !11
  %20 = load ptr, ptr %3, align 8, !tbaa !11
  %21 = call i32 @create_ssl_objects(ptr noundef %19, ptr noundef %20, ptr noundef %4, ptr noundef %5, ptr noundef null, ptr noundef null)
  %22 = icmp ne i32 %21, 0
  %23 = zext i1 %22 to i32
  %24 = call i32 @test_true(ptr noundef @.str.14, i32 noundef 370, ptr noundef @.str.33, i32 noundef %23)
  %25 = icmp ne i32 %24, 0
  br i1 %25, label %27, label %26

26:                                               ; preds = %18
  br label %45

27:                                               ; preds = %18
  %28 = load ptr, ptr %5, align 8, !tbaa !13
  call void @DTLS_set_timer_cb(ptr noundef %28, ptr noundef @timer_cb)
  %29 = load ptr, ptr %4, align 8, !tbaa !13
  call void @DTLS_set_timer_cb(ptr noundef %29, ptr noundef @timer_cb)
  %30 = load ptr, ptr %5, align 8, !tbaa !13
  %31 = call ptr @SSL_get_wbio(ptr noundef %30)
  %32 = call i64 @BIO_ctrl(ptr noundef %31, i32 noundef 131072, i64 noundef 1, ptr noundef null)
  %33 = load ptr, ptr %4, align 8, !tbaa !13
  %34 = call ptr @SSL_get_wbio(ptr noundef %33)
  %35 = call i64 @BIO_ctrl(ptr noundef %34, i32 noundef 131072, i64 noundef 1, ptr noundef null)
  %36 = load ptr, ptr %4, align 8, !tbaa !13
  %37 = load ptr, ptr %5, align 8, !tbaa !13
  %38 = call i32 @create_ssl_connection(ptr noundef %36, ptr noundef %37, i32 noundef 0)
  %39 = icmp ne i32 %38, 0
  %40 = zext i1 %39 to i32
  %41 = call i32 @test_true(ptr noundef @.str.14, i32 noundef 379, ptr noundef @.str.34, i32 noundef %40)
  %42 = icmp ne i32 %41, 0
  br i1 %42, label %44, label %43

43:                                               ; preds = %27
  br label %45

44:                                               ; preds = %27
  store i32 1, ptr %6, align 4, !tbaa !9
  br label %45

45:                                               ; preds = %44, %43, %26
  %46 = load ptr, ptr %4, align 8, !tbaa !13
  call void @SSL_free(ptr noundef %46)
  %47 = load ptr, ptr %5, align 8, !tbaa !13
  call void @SSL_free(ptr noundef %47)
  %48 = load ptr, ptr %2, align 8, !tbaa !11
  call void @SSL_CTX_free(ptr noundef %48)
  %49 = load ptr, ptr %3, align 8, !tbaa !11
  call void @SSL_CTX_free(ptr noundef %49)
  %50 = load i32, ptr %6, align 4, !tbaa !9
  store i32 %50, ptr %1, align 4
  store i32 1, ptr %7, align 4
  br label %51

51:                                               ; preds = %45, %17
  call void @llvm.lifetime.end.p0(i64 4, ptr %6) #5
  call void @llvm.lifetime.end.p0(i64 8, ptr %5) #5
  call void @llvm.lifetime.end.p0(i64 8, ptr %4) #5
  call void @llvm.lifetime.end.p0(i64 8, ptr %3) #5
  call void @llvm.lifetime.end.p0(i64 8, ptr %2) #5
  %52 = load i32, ptr %1, align 4
  ret i32 %52
}