; Function Attrs: nounwind uwtable
define internal range(i32 0, 2) i32 @test_dtls_duplicate_records() #1 {
  %1 = alloca ptr, align 8
  %2 = alloca ptr, align 8
  %3 = alloca ptr, align 8
  %4 = alloca ptr, align 8
  call void @llvm.lifetime.start.p0(i64 8, ptr nonnull %1) #8
  store ptr null, ptr %1, align 8, !tbaa !9
  call void @llvm.lifetime.start.p0(i64 8, ptr nonnull %2) #8
  store ptr null, ptr %2, align 8, !tbaa !9
  call void @llvm.lifetime.start.p0(i64 8, ptr nonnull %3) #8
  store ptr null, ptr %3, align 8, !tbaa !11
  call void @llvm.lifetime.start.p0(i64 8, ptr nonnull %4) #8
  store ptr null, ptr %4, align 8, !tbaa !11
  %5 = tail call ptr @DTLS_server_method() #8
  %6 = tail call ptr @DTLS_client_method() #8
  %7 = load ptr, ptr @cert, align 8, !tbaa !4
  %8 = load ptr, ptr @privkey, align 8, !tbaa !4
  %9 = call i32 @create_ssl_ctx_pair(ptr noundef null, ptr noundef %5, ptr noundef %6, i32 noundef 65279, i32 noundef 0, ptr noundef nonnull %1, ptr noundef nonnull %2, ptr noundef %7, ptr noundef %8) #8
  %10 = icmp ne i32 %9, 0
  %11 = zext i1 %10 to i32
  %12 = call i32 @test_true(ptr noundef nonnull @.str.14, i32 noundef 358, ptr noundef nonnull @.str.25, i32 noundef %11) #8
  %.not = icmp eq i32 %12, 0
  br i1 %.not, label %40, label %13

13:                                               ; preds = %0
  %14 = load ptr, ptr %1, align 8, !tbaa !9
  %15 = load ptr, ptr %2, align 8, !tbaa !9
  %16 = call i32 @create_ssl_objects(ptr noundef %14, ptr noundef %15, ptr noundef nonnull %3, ptr noundef nonnull %4, ptr noundef null, ptr noundef null) #8
  %17 = icmp ne i32 %16, 0
  %18 = zext i1 %17 to i32
  %19 = call i32 @test_true(ptr noundef nonnull @.str.14, i32 noundef 370, ptr noundef nonnull @.str.33, i32 noundef %18) #8
  %.not3 = icmp eq i32 %19, 0
  br i1 %.not3, label %35, label %20

20:                                               ; preds = %13
  %21 = load ptr, ptr %4, align 8, !tbaa !11
  call void @DTLS_set_timer_cb(ptr noundef %21, ptr noundef nonnull @timer_cb) #8
  %22 = load ptr, ptr %3, align 8, !tbaa !11
  call void @DTLS_set_timer_cb(ptr noundef %22, ptr noundef nonnull @timer_cb) #8
  %23 = load ptr, ptr %4, align 8, !tbaa !11
  %24 = call ptr @SSL_get_wbio(ptr noundef %23) #8
  %25 = call i64 @BIO_ctrl(ptr noundef %24, i32 noundef 131072, i64 noundef 1, ptr noundef null) #8
  %26 = load ptr, ptr %3, align 8, !tbaa !11
  %27 = call ptr @SSL_get_wbio(ptr noundef %26) #8
  %28 = call i64 @BIO_ctrl(ptr noundef %27, i32 noundef 131072, i64 noundef 1, ptr noundef null) #8
  %29 = load ptr, ptr %3, align 8, !tbaa !11
  %30 = load ptr, ptr %4, align 8, !tbaa !11
  %31 = call i32 @create_ssl_connection(ptr noundef %29, ptr noundef %30, i32 noundef 0) #8
  %32 = icmp ne i32 %31, 0
  %33 = zext i1 %32 to i32
  %34 = call i32 @test_true(ptr noundef nonnull @.str.14, i32 noundef 379, ptr noundef nonnull @.str.34, i32 noundef %33) #8
  %.not4 = icmp ne i32 %34, 0
  %spec.select = zext i1 %.not4 to i32
  br label %35

35:                                               ; preds = %20, %13
  %.0 = phi i32 [ 0, %13 ], [ %spec.select, %20 ]
  %36 = load ptr, ptr %3, align 8, !tbaa !11
  call void @SSL_free(ptr noundef %36) #8
  %37 = load ptr, ptr %4, align 8, !tbaa !11
  call void @SSL_free(ptr noundef %37) #8
  %38 = load ptr, ptr %1, align 8, !tbaa !9
  call void @SSL_CTX_free(ptr noundef %38) #8
  %39 = load ptr, ptr %2, align 8, !tbaa !9
  call void @SSL_CTX_free(ptr noundef %39) #8
  br label %40

40:                                               ; preds = %0, %35
  %.02 = phi i32 [ %.0, %35 ], [ 0, %0 ]
  call void @llvm.lifetime.end.p0(i64 8, ptr nonnull %4) #8
  call void @llvm.lifetime.end.p0(i64 8, ptr nonnull %3) #8
  call void @llvm.lifetime.end.p0(i64 8, ptr nonnull %2) #8
  call void @llvm.lifetime.end.p0(i64 8, ptr nonnull %1) #8
  ret i32 %.02
}